target datalayout = "e-m:e-p270:32:32-p271:32:32-p272:64:64-i64:64-i128:128-f80:128-n8:16:32:64-S128"
target triple = "x86_64-pc-linux-gnu"

; Function Attrs: mustprogress nounwind uwtable
define hidden noundef i32 @_ZN14VectorCastNode6opcodeEi9BasicTypeb(i32 noundef %0, i8 noundef zeroext %1, i1 noundef zeroext %2) #1 align 2 {
  %4 = alloca i32, align 4
  %5 = alloca i32, align 4
  %6 = alloca i8, align 1
  %7 = alloca i8, align 1
  store i32 %0, ptr %5, align 4
  store i8 %1, ptr %6, align 1
  %8 = zext i1 %2 to i8
  store i8 %8, ptr %7, align 1
  %9 = load i32, ptr %5, align 4
  switch i32 %9, label %12 [
    i32 140, label %10
    i32 139, label %11
  ]

10:                                               ; preds = %3
  store i32 490, ptr %4, align 4
  br label %32

11:                                               ; preds = %3
  store i32 489, ptr %4, align 4
  br label %32

12:                                               ; preds = %3
  br label %13

13:                                               ; preds = %12
  %14 = load i8, ptr %6, align 1
  %15 = zext i8 %14 to i32
  switch i32 %15, label %31 [
    i32 8, label %16
    i32 9, label %20
    i32 10, label %24
    i32 11, label %28
    i32 6, label %29
    i32 7, label %30
  ]

16:                                               ; preds = %13
  %17 = load i8, ptr %7, align 1
  %18 = trunc i8 %17 to i1
  %19 = select i1 %18, i32 483, i32 491
  store i32 %19, ptr %4, align 4
  br label %32

20:                                               ; preds = %13
  %21 = load i8, ptr %7, align 1
  %22 = trunc i8 %21 to i1
  %23 = select i1 %22, i32 484, i32 492
  store i32 %23, ptr %4, align 4
  br label %32

24:                                               ; preds = %13
  %25 = load i8, ptr %7, align 1
  %26 = trunc i8 %25 to i1
  %27 = select i1 %26, i32 485, i32 493
  store i32 %27, ptr %4, align 4
  br label %32

28:                                               ; preds = %13
  store i32 486, ptr %4, align 4
  br label %32

29:                                               ; preds = %13
  store i32 487, ptr %4, align 4
  br label %32

30:                                               ; preds = %13
  store i32 488, ptr %4, align 4
  br label %32

31:                                               ; preds = %13
  store i32 0, ptr %4, align 4
  br label %32

32:                                               ; preds = %31, %30, %29, %28, %24, %20, %16, %11, %10
  %33 = load i32, ptr %4, align 4
  ret i32 %33
}

; Function Attrs: mustprogress nounwind uwtable
define hidden noundef zeroext i1 @_ZN10VectorNode40vector_size_supported_auto_vectorizationE9BasicTypei(i8 noundef zeroext %0, i32 noundef %1) #1 align 2 {
  %3 = alloca i8, align 1
  %4 = alloca i32, align 4
  store i8 %0, ptr %3, align 1
  store i32 %1, ptr %4, align 4
  %5 = load i8, ptr %3, align 1
  %6 = call noundef i32 @_ZN7Matcher34max_vector_size_auto_vectorizationE9BasicType(i8 noundef zeroext %5)
  %7 = load i32, ptr %4, align 4
  %8 = icmp sge i32 %6, %7
  br i1 %8, label %9, label %14

9:                                                ; preds = %2
  %10 = load i8, ptr %3, align 1
  %11 = call noundef i32 @_ZN7Matcher15min_vector_sizeE9BasicType(i8 noundef zeroext %10)
  %12 = load i32, ptr %4, align 4
  %13 = icmp sle i32 %11, %12
  br label %14

14:                                               ; preds = %9, %2
  %15 = phi i1 [ false, %2 ], [ %13, %9 ]
  ret i1 %15
}

; Function Attrs: mustprogress nounwind uwtable
define linkonce_odr hidden noundef zeroext i1 @_Z13is_power_of_2IjTnNSt9enable_ifIXcvbsr3std11is_integralIT_EE5valueEiE4typeELi0EEbS1_(i32 noundef %0) #1 comdat {
  %2 = alloca i32, align 4
  store i32 %0, ptr %2, align 4
  %3 = load i32, ptr %2, align 4
  %4 = icmp ugt i32 %3, 0
  br i1 %4, label %5, label %11

5:                                                ; preds = %1
  %6 = load i32, ptr %2, align 4
  %7 = load i32, ptr %2, align 4
  %8 = sub i32 %7, 1
  %9 = and i32 %6, %8
  %10 = icmp eq i32 %9, 0
  br label %11

11:                                               ; preds = %5, %1
  %12 = phi i1 [ false, %1 ], [ %10, %5 ]
  ret i1 %12
}

; Function Attrs: mustprogress nounwind uwtable
define linkonce_odr hidden noundef zeroext i1 @_Z17is_java_primitive9BasicType(i8 noundef zeroext %0) #1 comdat {
  %2 = alloca i8, align 1
  store i8 %0, ptr %2, align 1
  %3 = load i8, ptr %2, align 1
  %4 = zext i8 %3 to i32
  %5 = icmp sle i32 4, %4
  br i1 %5, label %6, label %10

6:                                                ; preds = %1
  %7 = load i8, ptr %2, align 1
  %8 = zext i8 %7 to i32
  %9 = icmp sle i32 %8, 11
  br label %10

10:                                               ; preds = %6, %1
  %11 = phi i1 [ false, %1 ], [ %9, %6 ]
  ret i1 %11
}

; Function Attrs: mustprogress nounwind uwtable
define hidden noundef zeroext i1 @_ZN14VectorCastNode11implementedEij9BasicTypeS0_(i32 noundef %0, i32 noundef %1, i8 noundef zeroext %2, i8 noundef zeroext %3) #1 align 2 {
  %5 = alloca i1, align 1
  %6 = alloca i32, align 4
  %7 = alloca i32, align 4
  %8 = alloca i8, align 1
  %9 = alloca i8, align 1
  %10 = alloca i32, align 4
  store i32 %0, ptr %6, align 4
  store i32 %1, ptr %7, align 4
  store i8 %2, ptr %8, align 1
  store i8 %3, ptr %9, align 1
  %11 = load i8, ptr %9, align 1
  %12 = call noundef zeroext i1 @_Z17is_java_primitive9BasicType(i8 noundef zeroext %11)
  br i1 %12, label %13, label %39

13:                                               ; preds = %4
  %14 = load i8, ptr %8, align 1
  %15 = call noundef zeroext i1 @_Z17is_java_primitive9BasicType(i8 noundef zeroext %14)
  br i1 %15, label %16, label %39

16:                                               ; preds = %13
  %17 = load i32, ptr %7, align 4
  %18 = icmp ugt i32 %17, 1
  br i1 %18, label %19, label %39

19:                                               ; preds = %16
  %20 = load i32, ptr %7, align 4
  %21 = call noundef zeroext i1 @_Z13is_power_of_2IjTnNSt9enable_ifIXcvbsr3std11is_integralIT_EE5valueEiE4typeELi0EEbS1_(i32 noundef %20)
  br i1 %21, label %22, label %39

22:                                               ; preds = %19
  %23 = load i8, ptr %9, align 1
  %24 = load i32, ptr %7, align 4
  %25 = call noundef zeroext i1 @_ZN10VectorNode40vector_size_supported_auto_vectorizationE9BasicTypei(i8 noundef zeroext %23, i32 noundef %24)
  br i1 %25, label %26, label %39

26:                                               ; preds = %22
  %27 = load i32, ptr %6, align 4
  %28 = load i8, ptr %8, align 1
  %29 = call noundef i32 @_ZN14VectorCastNode6opcodeEi9BasicTypeb(i32 noundef %27, i8 noundef zeroext %28, i1 noundef zeroext true)
  store i32 %29, ptr %10, align 4
  %30 = load i32, ptr %10, align 4
  %31 = icmp sgt i32 %30, 0
  br i1 %31, label %32, label %37

32:                                               ; preds = %26
  %33 = load i32, ptr %10, align 4
  %34 = load i32, ptr %7, align 4
  %35 = load i8, ptr %9, align 1
  %36 = call noundef zeroext i1 @_ZN7Matcher39match_rule_supported_auto_vectorizationEii9BasicType(i32 noundef %33, i32 noundef %34, i8 noundef zeroext %35)
  br label %37

37:                                               ; preds = %32, %26
  %38 = phi i1 [ false, %26 ], [ %36, %32 ]
  store i1 %38, ptr %5, align 1
  br label %40

39:                                               ; preds = %22, %19, %16, %13, %4
  store i1 false, ptr %5, align 1
  br label %40

40:                                               ; preds = %39, %37
  %41 = load i1, ptr %5, align 1
  ret i1 %41
}