; Function Attrs: mustprogress nounwind uwtable
define hidden noundef zeroext i1 @_ZN14VectorCastNode11implementedEij9BasicTypeS0_(i32 noundef %0, i32 noundef %1, i8 noundef zeroext %2, i8 noundef zeroext %3) local_unnamed_addr #1 align 2 {
  %5 = add i8 %3, -4
  %6 = icmp ult i8 %5, 8
  br i1 %6, label %7, label %_ZN14VectorCastNode6opcodeEi9BasicTypeb.exit

7:                                                ; preds = %4
  %8 = add i8 %2, -4
  %9 = icmp ult i8 %8, 8
  %10 = icmp ugt i32 %1, 1
  %or.cond = and i1 %10, %9
  %11 = tail call range(i32 0, 33) i32 @llvm.ctpop.i32(i32 %1)
  %12 = icmp ult i32 %11, 2
  %or.cond20 = select i1 %or.cond, i1 %12, i1 false
  br i1 %or.cond20, label %13, label %_ZN14VectorCastNode6opcodeEi9BasicTypeb.exit

13:                                               ; preds = %7
  %14 = tail call noundef i32 @_ZN7Matcher34max_vector_size_auto_vectorizationE9BasicType(i8 noundef zeroext %3) #8
  %.not.i15 = icmp slt i32 %14, %1
  br i1 %.not.i15, label %_ZN14VectorCastNode6opcodeEi9BasicTypeb.exit, label %_ZN10VectorNode40vector_size_supported_auto_vectorizationE9BasicTypei.exit

_ZN10VectorNode40vector_size_supported_auto_vectorizationE9BasicTypei.exit: ; preds = %13
  %15 = tail call noundef i32 @_ZN7Matcher15min_vector_sizeE9BasicType(i8 noundef zeroext %3) #8
  %.not = icmp sgt i32 %15, %1
  br i1 %.not, label %_ZN14VectorCastNode6opcodeEi9BasicTypeb.exit, label %16

16:                                               ; preds = %_ZN10VectorNode40vector_size_supported_auto_vectorizationE9BasicTypei.exit
  switch i32 %0, label %18 [
    i32 140, label %21
    i32 139, label %17
  ]

17:                                               ; preds = %16
  br label %21

18:                                               ; preds = %16
  %switch.tableidx = add nsw i8 %2, -6
  %19 = icmp ult i8 %switch.tableidx, 6
  br i1 %19, label %switch.lookup, label %_ZN14VectorCastNode6opcodeEi9BasicTypeb.exit

switch.lookup:                                    ; preds = %18
  %20 = zext nneg i8 %switch.tableidx to i64
  %switch.gep = getelementptr inbounds [6 x i32], ptr @switch.table._ZN14VectorCastNode11implementedEij9BasicTypeS0_, i64 0, i64 %20
  %switch.load = load i32, ptr %switch.gep, align 4
  br label %21

21:                                               ; preds = %switch.lookup, %17, %16
  %.0.i.ph = phi i32 [ 490, %16 ], [ 489, %17 ], [ %switch.load, %switch.lookup ]
  %22 = tail call noundef zeroext i1 @_ZN7Matcher39match_rule_supported_auto_vectorizationEii9BasicType(i32 noundef %.0.i.ph, i32 noundef %1, i8 noundef zeroext %3) #8
  br label %_ZN14VectorCastNode6opcodeEi9BasicTypeb.exit

_ZN14VectorCastNode6opcodeEi9BasicTypeb.exit:     ; preds = %18, %13, %4, %7, %_ZN10VectorNode40vector_size_supported_auto_vectorizationE9BasicTypei.exit, %21
  %.0 = phi i1 [ %22, %21 ], [ false, %_ZN10VectorNode40vector_size_supported_auto_vectorizationE9BasicTypei.exit ], [ false, %7 ], [ false, %4 ], [ false, %18 ], [ false, %13 ]
  ret i1 %.0
}